; Function Attrs: nounwind uwtable
define dso_local i32 @cgroup_g_step_start_oom_mgr(ptr noundef %0) local_unnamed_addr #0 {
  %2 = load i32, ptr @plugin_inited, align 4
  %3 = icmp eq i32 %2, 1
  br i1 %3, label %7, label %4

4:                                                ; preds = %1
  %5 = load ptr, ptr getelementptr inbounds nuw (i8, ptr @ops, i64 112), align 8
  %6 = tail call i32 %5(ptr noundef %0) #12
  br label %7

7:                                                ; preds = %1, %4
  %.0 = phi i32 [ %6, %4 ], [ 0, %1 ]
  ret i32 %.0
}